	.file	"test.c"
	.text
.Ltext0:
	.p2align 4,,15
	.globl	suite_rec
	.type	suite_rec, @function
suite_rec:
.LFB11:
	.file 1 "test.c"
	.loc 1 4 0
	.cfi_startproc
.LVL0:
	movq	%rbx, -32(%rsp)
	movq	%rbp, -24(%rsp)
	movl	%edi, %ebx
	.cfi_offset 6, -32
	.cfi_offset 3, -40
	movq	%r12, -16(%rsp)
	movq	%r13, -8(%rsp)
	subq	$72, %rsp
.LCFI0:
	.cfi_def_cfa_offset 80
	.cfi_offset 13, -16
	.cfi_offset 12, -24
	.loc 1 5 0
	testl	%edi, %edi
	.loc 1 6 0
	movl	$75, %eax
	.loc 1 5 0
	jne	.L21
.LVL1:
.L2:
	.loc 1 9 0
	movq	40(%rsp), %rbx
	movq	48(%rsp), %rbp
	movq	56(%rsp), %r12
	movq	64(%rsp), %r13
	addq	$72, %rsp
	.cfi_remember_state
.LCFI1:
	.cfi_def_cfa_offset 8
	ret
.LVL2:
	.p2align 4,,10
	.p2align 3
.L21:
.LCFI2:
	.cfi_restore_state
.LBB18:
.LBB19:
	.loc 1 5 0
	movl	%edi, %ebp
	movl	$84, %edx
	subl	$1, %ebp
	jne	.L22
.L3:
.LBE19:
.LBE18:
	.loc 1 8 0
	movslq	%ebx, %rbx
.LVL3:
	movq	%rbx, %rax
	negq	%rax
.LVL4:
	salq	$4, %rax
	subq	%rbx, %rax
	addq	%rdx, %rax
	jmp	.L2
	.p2align 4,,10
	.p2align 3
.L22:
.LVL5:
.LBB47:
.LBB46:
.LBB20:
.LBB21:
	.loc 1 5 0
	movl	%edi, %r12d
	subl	$2, %r12d
	jne	.L23
.L4:
.LBE21:
.LBE20:
	.loc 1 8 0
	movslq	%ebp, %rbp
	movq	%rbp, %rax
	negq	%rax
	salq	$4, %rax
	subq	%rbp, %rax
	leaq	9(%rdx,%rax), %rdx
	jmp	.L3
.L23:
.LVL6:
.LBB45:
.LBB44:
.LBB22:
.LBB23:
	.loc 1 5 0
	movl	%edi, %r13d
	subl	$3, %r13d
	jne	.L24
.L5:
.LBE23:
.LBE22:
	.loc 1 8 0
	movslq	%r12d, %r12
	movq	%r12, %rax
	negq	%rax
	salq	$4, %rax
	subq	%r12, %rax
	leaq	9(%rdx,%rax), %rdx
	jmp	.L4
.L24:
.LVL7:
.LBB43:
.LBB42:
.LBB24:
.LBB25:
	.loc 1 5 0
	movl	%edi, %edx
	subl	$4, %edx
	movl	%edx, 12(%rsp)
	jne	.L25
.L6:
.LBE25:
.LBE24:
	.loc 1 8 0
	movslq	%r13d, %rdx
	imulq	$-17, %rdx, %rdx
.LBB41:
.LBB40:
	leaq	18(%rax,%rdx), %rdx
	jmp	.L5
.L25:
.LVL8:
.LBB26:
.LBB27:
	.loc 1 5 0
	movl	%edi, %edx
	subl	$5, %edx
	movl	%edx, 16(%rsp)
	jne	.L26
.L7:
.LBE27:
.LBE26:
	.loc 1 8 0
	movslq	12(%rsp), %rdx
	imulq	$-17, %rdx, %rdx
	leaq	9(%rax,%rdx), %rax
	jmp	.L6
.L26:
.LVL9:
.LBB39:
.LBB38:
.LBB28:
.LBB29:
	.loc 1 5 0
	movl	%edi, %edx
	subl	$6, %edx
	movl	%edx, 20(%rsp)
	jne	.L27
.L8:
.LBE29:
.LBE28:
	.loc 1 8 0
	movslq	16(%rsp), %rdx
	imulq	$-17, %rdx, %rdx
	leaq	9(%rax,%rdx), %rax
	jmp	.L7
.L27:
.LVL10:
.LBB37:
.LBB36:
.LBB30:
.LBB31:
	.loc 1 5 0
	movl	%edi, %edx
	subl	$7, %edx
	movl	%edx, 24(%rsp)
	jne	.L28
.L9:
.LBE31:
.LBE30:
	.loc 1 8 0
	movslq	20(%rsp), %rdx
	imulq	$-17, %rdx, %rdx
	leaq	9(%rax,%rdx), %rax
	jmp	.L8
.L28:
.LVL11:
.LBB35:
.LBB34:
.LBB32:
.LBB33:
	.loc 1 5 0
	movl	%edi, %edx
	subl	$8, %edx
	movl	%edx, 28(%rsp)
	je	.L10
	.loc 1 8 0
	leal	-9(%rbx), %edi
	call	suite_rec
	movslq	28(%rsp), %rdx
	imulq	$-17, %rdx, %rdx
	leaq	9(%rax,%rdx), %rax
.L10:
.LBE33:
.LBE32:
	movslq	24(%rsp), %rdx
	imulq	$-17, %rdx, %rdx
	leaq	9(%rax,%rdx), %rax
	jmp	.L9
.LBE34:
.LBE35:
.LBE36:
.LBE37:
.LBE38:
.LBE39:
.LBE40:
.LBE41:
.LBE42:
.LBE43:
.LBE44:
.LBE45:
.LBE46:
.LBE47:
	.cfi_endproc
.LFE11:
	.size	suite_rec, .-suite_rec
	.section	.rodata.str1.1,"aMS",@progbits,1
.LC0:
	.string	"%ld"
	.section	.text.startup,"ax",@progbits
	.p2align 4,,15
	.globl	main
	.type	main, @function
main:
.LFB12:
	.loc 1 34 0
	.cfi_startproc
	subq	$8, %rsp
.LCFI3:
	.cfi_def_cfa_offset 16
	.loc 1 35 0
	movl	$835194, %edi
	call	suite_rec
	movl	$.LC0, %edi
	movq	%rax, %rsi
	.loc 1 36 0
	addq	$8, %rsp
.LCFI4:
	.cfi_def_cfa_offset 8
	.loc 1 35 0
	xorl	%eax, %eax
	jmp	printf
	.cfi_endproc
.LFE12:
	.size	main, .-main
	.text
.Letext0:
	.file 2 "/usr/lib/gcc/x86_64-unknown-linux-gnu/4.6.1/include/stddef.h"
	.file 3 "/usr/include/bits/types.h"
	.file 4 "/usr/include/libio.h"
	.file 5 "/usr/include/stdio.h"
	.section	.note.GNU-stack,"",@progbits
